; Function Attrs: nounwind uwtable
define ptr @l_Lean_Meta_visitLet_visit___at_Lean_Meta_forEachExpr_x27_visit___spec__9___rarg___lambda__3(ptr noundef %0, ptr noundef %1, ptr noundef %2, ptr noundef %3, ptr noundef %4, ptr noundef %5, ptr noundef %6, ptr noundef %7, ptr noundef %8, ptr noundef %9, ptr noundef %10, ptr readnone captures(none) %11) local_unnamed_addr #0 {
  %13 = ptrtoint ptr %0 to i64
  %14 = and i64 %13, 1
  %.not = icmp eq i64 %14, 0
  br i1 %.not, label %15, label %lean_inc.exit31

15:                                               ; preds = %12
  %.val.i = load i32, ptr %0, align 4, !tbaa !4
  %16 = icmp sgt i32 %.val.i, 0
  br i1 %16, label %17, label %19, !prof !13

17:                                               ; preds = %15
  %18 = add nuw i32 %.val.i, 1
  store i32 %18, ptr %0, align 4, !tbaa !4
  br label %lean_inc.exit31

19:                                               ; preds = %15
  %.not.i = icmp eq i32 %.val.i, 0
  br i1 %.not.i, label %lean_inc.exit31, label %20

20:                                               ; preds = %19
  tail call void @lean_inc_ref_cold(ptr noundef nonnull %0) #4
  br label %lean_inc.exit31

lean_inc.exit31:                                  ; preds = %20, %19, %17, %12
  %21 = ptrtoint ptr %2 to i64
  %22 = and i64 %21, 1
  %.not38 = icmp eq i64 %22, 0
  br i1 %.not38, label %23, label %lean_inc.exit30

23:                                               ; preds = %lean_inc.exit31
  %.val.i32 = load i32, ptr %2, align 4, !tbaa !4
  %24 = icmp sgt i32 %.val.i32, 0
  br i1 %24, label %25, label %27, !prof !13

25:                                               ; preds = %23
  %26 = add nuw i32 %.val.i32, 1
  store i32 %26, ptr %2, align 4, !tbaa !4
  br label %lean_inc.exit30

27:                                               ; preds = %23
  %.not.i33 = icmp eq i32 %.val.i32, 0
  br i1 %.not.i33, label %lean_inc.exit30, label %28

28:                                               ; preds = %27
  tail call void @lean_inc_ref_cold(ptr noundef nonnull %2) #4
  br label %lean_inc.exit30

lean_inc.exit30:                                  ; preds = %28, %27, %25, %lean_inc.exit31
  %29 = ptrtoint ptr %1 to i64
  %30 = and i64 %29, 1
  %.not39 = icmp eq i64 %30, 0
  br i1 %.not39, label %31, label %lean_inc.exit

31:                                               ; preds = %lean_inc.exit30
  %.val.i35 = load i32, ptr %1, align 4, !tbaa !4
  %32 = icmp sgt i32 %.val.i35, 0
  br i1 %32, label %33, label %35, !prof !13

33:                                               ; preds = %31
  %34 = add nuw i32 %.val.i35, 1
  store i32 %34, ptr %1, align 4, !tbaa !4
  br label %lean_inc.exit

35:                                               ; preds = %31
  %.not.i36 = icmp eq i32 %.val.i35, 0
  br i1 %.not.i36, label %lean_inc.exit, label %36

36:                                               ; preds = %35
  tail call void @lean_inc_ref_cold(ptr noundef nonnull %1) #4
  br label %lean_inc.exit

lean_inc.exit:                                    ; preds = %36, %35, %33, %lean_inc.exit30
  %37 = tail call ptr @lean_apply_2(ptr noundef %0, ptr noundef %1, ptr noundef %2) #4
  tail call void @lean_inc_heartbeat() #4
  %38 = tail call noalias ptr @mi_malloc_small(i64 noundef 104) #4
  %39 = icmp eq ptr %38, null
  br i1 %39, label %40, label %lean_alloc_closure.exit

40:                                               ; preds = %lean_inc.exit
  tail call void @lean_internal_panic_out_of_memory() #5
  unreachable

lean_alloc_closure.exit:                          ; preds = %lean_inc.exit
  %41 = getelementptr inbounds nuw i8, ptr %38, i64 4
  store i32 1, ptr %38, align 4, !tbaa !4
  store i32 -184549272, ptr %41, align 4
  %42 = getelementptr inbounds nuw i8, ptr %38, i64 8
  store ptr @l_Lean_Meta_visitLet_visit___at_Lean_Meta_forEachExpr_x27_visit___spec__9___rarg___lambda__2___boxed, ptr %42, align 8, !tbaa !9
  %43 = getelementptr inbounds nuw i8, ptr %38, i64 16
  store i16 11, ptr %43, align 8, !tbaa !11
  %44 = getelementptr inbounds nuw i8, ptr %38, i64 18
  store i16 10, ptr %44, align 2, !tbaa !11
  %45 = getelementptr inbounds nuw i8, ptr %38, i64 24
  store ptr %3, ptr %45, align 8, !tbaa !9
  %46 = getelementptr inbounds nuw i8, ptr %38, i64 32
  store ptr %4, ptr %46, align 8, !tbaa !9
  %47 = getelementptr inbounds nuw i8, ptr %38, i64 40
  store ptr %5, ptr %47, align 8, !tbaa !9
  %48 = getelementptr inbounds nuw i8, ptr %38, i64 48
  store ptr %6, ptr %48, align 8, !tbaa !9
  %49 = getelementptr inbounds nuw i8, ptr %38, i64 56
  store ptr %0, ptr %49, align 8, !tbaa !9
  %50 = getelementptr inbounds nuw i8, ptr %38, i64 64
  store ptr %7, ptr %50, align 8, !tbaa !9
  %51 = getelementptr inbounds nuw i8, ptr %38, i64 72
  store ptr %8, ptr %51, align 8, !tbaa !9
  %52 = getelementptr inbounds nuw i8, ptr %38, i64 80
  store ptr %9, ptr %52, align 8, !tbaa !9
  %53 = getelementptr inbounds nuw i8, ptr %38, i64 88
  store ptr %1, ptr %53, align 8, !tbaa !9
  %54 = getelementptr inbounds nuw i8, ptr %38, i64 96
  store ptr %2, ptr %54, align 8, !tbaa !9
  %55 = tail call ptr @lean_apply_4(ptr noundef %10, ptr noundef nonnull inttoptr (i64 1 to ptr), ptr noundef nonnull inttoptr (i64 1 to ptr), ptr noundef %37, ptr noundef nonnull %38) #4
  ret ptr %55
}